target datalayout = "e-m:e-p270:32:32-p271:32:32-p272:64:64-i64:64-i128:128-f80:128-n8:16:32:64-S128"
target triple = "x86_64-pc-linux-gnu"

%struct.hashfile = type { i32, i32, i32, %union.git_hash_ctx, i64, ptr, ptr, i32, i32, i64, ptr, ptr, ptr, i32 }
%union.git_hash_ctx = type { %struct.SHA1_CTX }
%struct.SHA1_CTX = type { i64, [5 x i32], [64 x i8], i32, i32, i32, i32, i32, ptr, [5 x i32], [5 x i32], [80 x i32], [80 x i32], [80 x [5 x i32]] }
%struct.git_hash_algo = type { ptr, i32, i64, i64, i64, ptr, ptr, ptr, ptr, ptr, ptr, ptr, ptr, ptr }
%struct.hashfile_checkpoint = type { i64, %union.git_hash_ctx }

; Function Attrs: nounwind uwtable
define dso_local void @hashflush(ptr noundef %0) #0 {
  %2 = alloca ptr, align 8
  %3 = alloca i32, align 4
  store ptr %0, ptr %2, align 8, !tbaa !4
  call void @llvm.lifetime.start.p0(i64 4, ptr %3) #10
  %4 = load ptr, ptr %2, align 8, !tbaa !4
  %5 = getelementptr inbounds nuw %struct.hashfile, ptr %4, i32 0, i32 2
  %6 = load i32, ptr %5, align 8, !tbaa !9
  store i32 %6, ptr %3, align 4, !tbaa !16
  %7 = load i32, ptr %3, align 4, !tbaa !16
  %8 = icmp ne i32 %7, 0
  br i1 %8, label %9, label %35

9:                                                ; preds = %1
  %10 = load ptr, ptr %2, align 8, !tbaa !4
  %11 = getelementptr inbounds nuw %struct.hashfile, ptr %10, i32 0, i32 13
  %12 = load i32, ptr %11, align 8, !tbaa !17
  %13 = icmp ne i32 %12, 0
  br i1 %13, label %27, label %14

14:                                               ; preds = %9
  %15 = load ptr, ptr %2, align 8, !tbaa !4
  %16 = getelementptr inbounds nuw %struct.hashfile, ptr %15, i32 0, i32 12
  %17 = load ptr, ptr %16, align 8, !tbaa !18
  %18 = getelementptr inbounds nuw %struct.git_hash_algo, ptr %17, i32 0, i32 7
  %19 = load ptr, ptr %18, align 8, !tbaa !19
  %20 = load ptr, ptr %2, align 8, !tbaa !4
  %21 = getelementptr inbounds nuw %struct.hashfile, ptr %20, i32 0, i32 3
  %22 = load ptr, ptr %2, align 8, !tbaa !4
  %23 = getelementptr inbounds nuw %struct.hashfile, ptr %22, i32 0, i32 10
  %24 = load ptr, ptr %23, align 8, !tbaa !22
  %25 = load i32, ptr %3, align 4, !tbaa !16
  %26 = zext i32 %25 to i64
  call void %19(ptr noundef %21, ptr noundef %24, i64 noundef %26)
  br label %27

27:                                               ; preds = %14, %9
  %28 = load ptr, ptr %2, align 8, !tbaa !4
  %29 = load ptr, ptr %2, align 8, !tbaa !4
  %30 = getelementptr inbounds nuw %struct.hashfile, ptr %29, i32 0, i32 10
  %31 = load ptr, ptr %30, align 8, !tbaa !22
  %32 = load i32, ptr %3, align 4, !tbaa !16
  call void @flush(ptr noundef %28, ptr noundef %31, i32 noundef %32)
  %33 = load ptr, ptr %2, align 8, !tbaa !4
  %34 = getelementptr inbounds nuw %struct.hashfile, ptr %33, i32 0, i32 2
  store i32 0, ptr %34, align 8, !tbaa !9
  br label %35

35:                                               ; preds = %27, %1
  call void @llvm.lifetime.end.p0(i64 4, ptr %3) #10
  ret void
}

; Function Attrs: nounwind uwtable
define dso_local void @hashfile_checkpoint(ptr noundef %0, ptr noundef %1) #0 {
  %3 = alloca ptr, align 8
  %4 = alloca ptr, align 8
  store ptr %0, ptr %3, align 8, !tbaa !4
  store ptr %1, ptr %4, align 8, !tbaa !61
  %5 = load ptr, ptr %3, align 8, !tbaa !4
  call void @hashflush(ptr noundef %5)
  %6 = load ptr, ptr %3, align 8, !tbaa !4
  %7 = getelementptr inbounds nuw %struct.hashfile, ptr %6, i32 0, i32 4
  %8 = load i64, ptr %7, align 8, !tbaa !27
  %9 = load ptr, ptr %4, align 8, !tbaa !61
  %10 = getelementptr inbounds nuw %struct.hashfile_checkpoint, ptr %9, i32 0, i32 0
  store i64 %8, ptr %10, align 8, !tbaa !63
  %11 = load ptr, ptr %3, align 8, !tbaa !4
  %12 = getelementptr inbounds nuw %struct.hashfile, ptr %11, i32 0, i32 12
  %13 = load ptr, ptr %12, align 8, !tbaa !18
  %14 = getelementptr inbounds nuw %struct.git_hash_algo, ptr %13, i32 0, i32 6
  %15 = load ptr, ptr %14, align 8, !tbaa !65
  %16 = load ptr, ptr %4, align 8, !tbaa !61
  %17 = getelementptr inbounds nuw %struct.hashfile_checkpoint, ptr %16, i32 0, i32 1
  %18 = load ptr, ptr %3, align 8, !tbaa !4
  %19 = getelementptr inbounds nuw %struct.hashfile, ptr %18, i32 0, i32 3
  call void %15(ptr noundef %17, ptr noundef %19)
  ret void
}