; Function Attrs: nounwind uwtable
define dso_local void @hashfile_checkpoint(ptr noundef %0, ptr noundef initializes((0, 8)) %1) local_unnamed_addr #0 {
  %3 = getelementptr inbounds nuw i8, ptr %0, i64 8
  %4 = load i32, ptr %3, align 8, !tbaa !4
  %.not.i = icmp eq i32 %4, 0
  br i1 %.not.i, label %hashflush.exit, label %5

5:                                                ; preds = %2
  %6 = getelementptr inbounds nuw i8, ptr %0, i64 2480
  %7 = load i32, ptr %6, align 8, !tbaa !14
  %.not10.i = icmp eq i32 %7, 0
  br i1 %.not10.i, label %8, label %17

8:                                                ; preds = %5
  %9 = getelementptr inbounds nuw i8, ptr %0, i64 2472
  %10 = load ptr, ptr %9, align 8, !tbaa !15
  %11 = getelementptr inbounds nuw i8, ptr %10, i64 56
  %12 = load ptr, ptr %11, align 8, !tbaa !16
  %13 = getelementptr inbounds nuw i8, ptr %0, i64 16
  %14 = getelementptr inbounds nuw i8, ptr %0, i64 2456
  %15 = load ptr, ptr %14, align 8, !tbaa !19
  %16 = zext i32 %4 to i64
  tail call void %12(ptr noundef nonnull %13, ptr noundef %15, i64 noundef %16) #13
  br label %17

17:                                               ; preds = %8, %5
  %18 = getelementptr inbounds nuw i8, ptr %0, i64 2456
  %19 = load ptr, ptr %18, align 8, !tbaa !19
  tail call fastcc void @flush(ptr noundef nonnull %0, ptr noundef %19, i32 noundef %4)
  store i32 0, ptr %3, align 8, !tbaa !4
  br label %hashflush.exit

hashflush.exit:                                   ; preds = %2, %17
  %20 = getelementptr inbounds nuw i8, ptr %0, i64 2416
  %21 = load i64, ptr %20, align 8, !tbaa !25
  store i64 %21, ptr %1, align 8, !tbaa !54
  %22 = getelementptr inbounds nuw i8, ptr %0, i64 2472
  %23 = load ptr, ptr %22, align 8, !tbaa !15
  %24 = getelementptr inbounds nuw i8, ptr %23, i64 48
  %25 = load ptr, ptr %24, align 8, !tbaa !56
  %26 = getelementptr inbounds nuw i8, ptr %1, i64 8
  %27 = getelementptr inbounds nuw i8, ptr %0, i64 16
  tail call void %25(ptr noundef nonnull %26, ptr noundef nonnull %27) #13
  ret void
}